Certificate:
    Data:
        Version: 3 (0x2)
        Serial Number: 3 (0x3)
    Signature Algorithm: sha256WithRSAEncryption
        Issuer: C=US, ST=CA, L=SanFrancisco, O=Fort-Funston, OU=MyOrganizationalUnit, CN=Fort-Funston CA/name=EasyRSA/emailAddress=me@myhost.mydomain
        Validity
            Not Before: Dec 18 17:44:05 2022 GMT
            Not After : Dec 15 17:44:05 2032 GMT
        Subject: C=US, ST=CA, L=SanFrancisco, O=Fort-Funston, OU=MyOrganizationalUnit, CN=s2/name=EasyRSA/emailAddress=me@myhost.mydomain
        Subject Public Key Info:
            Public Key Algorithm: rsaEncryption
                Public-Key: (2048 bit)
                Modulus:
                    00:a2:90:bf:c3:b3:e7:a8:92:3f:d8:6b:de:5e:6e:
                    f5:a4:2a:e7:8f:a9:09:a6:83:a1:42:42:c1:63:d6:
                    98:66:4b:81:54:4a:f7:1f:3f:b6:32:b0:cc:e2:c3:
                    10:37:87:f2:d6:66:ad:90:52:7e:4a:34:25:85:ec:
                    81:34:d3:bb:f8:58:3b:e3:d9:18:54:e3:9c:8c:e7:
                    1f:ec:7a:17:e9:63:9e:00:3a:9e:97:0b:06:d0:a6:
                    b3:ae:53:34:c8:4d:ff:a7:39:fa:9d:41:6c:78:68:
                    87:e6:6d:59:4a:6b:76:2f:d6:63:73:f4:98:12:93:
                    2f:cd:f5:db:d5:70:0b:25:98:c1:ef:d7:de:64:c9:
                    cf:d8:a7:93:bf:af:64:66:2c:8b:21:d2:66:74:62:
                    34:63:85:5e:05:13:06:15:c9:8c:cd:f3:8c:69:75:
                    09:46:fb:58:9a:7b:7a:22:13:b8:23:a2:2b:6f:0d:
                    2f:06:43:fc:53:6a:34:dd:f4:df:5e:61:6c:f4:af:
                    d7:cc:2e:b4:43:56:05:87:fc:0f:3e:47:c2:ac:79:
                    c2:94:98:78:13:14:29:ca:83:3b:6a:84:7d:4f:e3:
                    f6:94:f3:92:77:dd:30:8d:43:fa:2f:6c:3d:2a:23:
                    0d:4d:70:86:ef:14:7f:3e:c4:8a:23:0a:10:f8:43:
                    53:15
                Exponent: 65537 (0x10001)
        X509v3 extensions:
            X509v3 Basic Constraints: 
                CA:FALSE
            Netscape Comment: 
                Easy-RSA Generated Certificate
            X509v3 Subject Key Identifier: 
                37:36:90:63:D8:3B:38:59:05:CA:E5:2B:B0:14:2E:CC:17:8B:8F:5D
            X509v3 Authority Key Identifier: 
                keyid:5A:90:6C:FB:4A:52:4A:53:2A:6A:D5:D8:55:BC:89:42:5B:5F:A8:4D
                DirName:/C=US/ST=CA/L=SanFrancisco/O=Fort-Funston/OU=MyOrganizationalUnit/CN=Fort-Funston CA/name=EasyRSA/emailAddress=me@myhost.mydomain
                serial:88:93:EB:B6:45:A9:7C:45

            X509v3 Extended Key Usage: 
                TLS Web Client Authentication
            X509v3 Key Usage: 
                Digital Signature
            X509v3 Subject Alternative Name: 
                DNS:s2
    Signature Algorithm: sha256WithRSAEncryption
         87:38:fb:f3:6f:f2:ad:a2:46:16:3b:01:d8:a2:13:9d:11:e5:
         07:23:78:4d:18:06:34:08:0c:16:89:aa:77:ef:15:65:f9:5d:
         67:89:5a:62:3a:01:1b:46:6f:a4:2d:06:12:53:70:9a:ac:2f:
         51:c0:6a:78:7a:f8:f5:da:70:bf:35:ce:9e:a7:89:c6:62:df:
         be:31:d2:90:c7:bc:b0:81:9f:7a:f5:32:43:6c:53:52:92:9d:
         19:85:ef:44:4e:08:20:dd:48:58:f2:5a:bf:15:28:fd:1b:f9:
         13:9b:bf:37:5a:fa:f7:c3:37:17:1b:59:fe:0d:cb:1e:1f:43:
         fb:8d:c9:86:e5:7e:71:cb:62:8e:a9:44:04:04:45:97:84:9f:
         23:93:7f:44:e1:c4:1c:c2:ae:20:c5:ba:5d:9c:58:ca:e6:a5:
         45:c7:90:79:48:0f:4a:3b:74:35:29:21:dd:08:9e:b0:5d:11:
         4d:ca:76:6c:b8:a9:bb:50:a2:e9:12:be:29:48:f6:89:e4:1b:
         6f:97:1c:fd:7c:5c:d6:df:2e:98:47:bd:ec:35:5e:f7:af:85:
         b5:80:b3:33:54:f3:01:a4:66:dd:73:99:6d:ed:5a:1d:8b:e2:
         41:aa:c0:d3:e6:6d:48:a4:e0:25:05:28:3c:2a:d7:06:a0:78:
         b3:65:db:71
-----BEGIN CERTIFICATE-----
MIIFWjCCBEKgAwIBAgIBAzANBgkqhkiG9w0BAQsFADCBtjELMAkGA1UEBhMCVVMx
CzAJBgNVBAgTAkNBMRUwEwYDVQQHEwxTYW5GcmFuY2lzY28xFTATBgNVBAoTDEZv
cnQtRnVuc3RvbjEdMBsGA1UECxMUTXlPcmdhbml6YXRpb25hbFVuaXQxGDAWBgNV
BAMTD0ZvcnQtRnVuc3RvbiBDQTEQMA4GA1UEKRMHRWFzeVJTQTEhMB8GCSqGSIb3
DQEJARYSbWVAbXlob3N0Lm15ZG9tYWluMB4XDTIyMTIxODE3NDQwNVoXDTMyMTIx
NTE3NDQwNVowgakxCzAJBgNVBAYTAlVTMQswCQYDVQQIEwJDQTEVMBMGA1UEBxMM
U2FuRnJhbmNpc2NvMRUwEwYDVQQKEwxGb3J0LUZ1bnN0b24xHTAbBgNVBAsTFE15
T3JnYW5pemF0aW9uYWxVbml0MQswCQYDVQQDEwJzMjEQMA4GA1UEKRMHRWFzeVJT
QTEhMB8GCSqGSIb3DQEJARYSbWVAbXlob3N0Lm15ZG9tYWluMIIBIjANBgkqhkiG
9w0BAQEFAAOCAQ8AMIIBCgKCAQEAopC/w7PnqJI/2GveXm71pCrnj6kJpoOhQkLB
Y9aYZkuBVEr3Hz+2MrDM4sMQN4fy1matkFJ+SjQlheyBNNO7+Fg749kYVOOcjOcf
7HoX6WOeADqelwsG0KazrlM0yE3/pzn6nUFseGiH5m1ZSmt2L9Zjc/SYEpMvzfXb
1XALJZjB79feZMnP2KeTv69kZiyLIdJmdGI0Y4VeBRMGFcmMzfOMaXUJRvtYmnt6
IhO4I6Irbw0vBkP8U2o03fTfXmFs9K/XzC60Q1YFh/wPPkfCrHnClJh4ExQpyoM7
aoR9T+P2lPOSd90wjUP6L2w9KiMNTXCG7xR/PsSKIwoQ+ENTFQIDAQABo4IBfDCC
AXgwCQYDVR0TBAIwADAtBglghkgBhvhCAQ0EIBYeRWFzeS1SU0EgR2VuZXJhdGVk
IENlcnRpZmljYXRlMB0GA1UdDgQWBBQ3NpBj2Ds4WQXK5SuwFC7MF4uPXTCB6wYD
VR0jBIHjMIHggBRakGz7SlJKUypq1dhVvIlCW1+oTaGBvKSBuTCBtjELMAkGA1UE
BhMCVVMxCzAJBgNVBAgTAkNBMRUwEwYDVQQHEwxTYW5GcmFuY2lzY28xFTATBgNV
BAoTDEZvcnQtRnVuc3RvbjEdMBsGA1UECxMUTXlPcmdhbml6YXRpb25hbFVuaXQx
GDAWBgNVBAMTD0ZvcnQtRnVuc3RvbiBDQTEQMA4GA1UEKRMHRWFzeVJTQTEhMB8G
CSqGSIb3DQEJARYSbWVAbXlob3N0Lm15ZG9tYWluggkAiJPrtkWpfEUwEwYDVR0l
BAwwCgYIKwYBBQUHAwIwCwYDVR0PBAQDAgeAMA0GA1UdEQQGMASCAnMyMA0GCSqG
SIb3DQEBCwUAA4IBAQCHOPvzb/KtokYWOwHYohOdEeUHI3hNGAY0CAwWiap37xVl
+V1niVpiOgEbRm+kLQYSU3CarC9RwGp4evj12nC/Nc6ep4nGYt++MdKQx7ywgZ96
9TJDbFNSkp0Zhe9ETggg3UhY8lq/FSj9G/kTm783Wvr3wzcXG1n+DcseH0P7jcmG
5X5xy2KOqUQEBEWXhJ8jk39E4cQcwq4gxbpdnFjK5qVFx5B5SA9KO3Q1KSHdCJ6w
XRFNynZsuKm7UKLpEr4pSPaJ5Btvlxz9fFzW3y6YR73sNV73r4W1gLMzVPMBpGbd
c5lt7Vodi+JBqsDT5m1IpOAlBSg8KtcGoHizZdtx
-----END CERTIFICATE-----
